Certificate:
    Data:
        Version: 3 (0x2)
        Serial Number: 4106 (0x100a)
    Signature Algorithm: sha1WithRSAEncryption
        Issuer: C=FR, ST=IDF, L=Paris, O=Fake CA for Test, CN=NodeOPCUA
        Validity
            Not Before: Nov 29 21:25:58 2015 GMT
            Not After : Nov 28 21:25:58 2016 GMT
        Subject: O=NodeOPCUA, CN=NodeOPCUA
        Subject Public Key Info:
            Public Key Algorithm: rsaEncryption
                Public-Key: (1024 bit)
                Modulus:
                    00:ee:7a:fc:1b:cc:3d:59:11:56:de:fb:4b:31:1e:
                    23:4e:ed:86:63:2b:24:17:38:f0:d5:8f:cd:84:e3:
                    93:07:d2:5f:83:91:3a:d3:81:af:23:eb:34:86:0e:
                    45:02:15:08:20:32:18:e4:c9:b3:13:2d:b4:5e:21:
                    78:89:a7:df:c1:2a:5f:15:cc:a3:78:2f:94:93:06:
                    28:d2:82:83:d4:fd:89:6f:c1:99:d9:a6:ee:dc:0a:
                    d8:c4:42:17:8d:4d:eb:17:9f:2b:f4:3a:ee:79:a6:
                    55:f2:02:42:84:f3:38:ff:55:e3:02:0a:71:90:8e:
                    92:23:99:af:c1:8e:04:cb:a9
                Exponent: 65537 (0x10001)
        X509v3 extensions:
            X509v3 Basic Constraints: critical
                CA:FALSE
            X509v3 Subject Key Identifier: 
                63:FB:60:87:F2:4C:BC:D2:A3:A2:BC:13:74:F6:0E:99:E9:DA:EF:F4
            X509v3 Authority Key Identifier: 
                keyid:07:F8:6D:5D:7C:61:B6:FA:90:B3:EB:64:C4:DE:35:BF:1F:8C:D9:CA
                DirName:/C=FR/ST=IDF/L=Paris/O=Fake CA for Test/CN=NodeOPCUA
                serial:D0:3F:F4:F4:9E:48:A6:E0

            X509v3 Subject Alternative Name: 
                URI:urn:KANARY:NodeOPCUA-Server, DNS:localhost, DNS:KANARY
            Netscape Comment: 
                OpenSSL Generated Certificate
            X509v3 Key Usage: critical
                Digital Signature, Non Repudiation, Key Encipherment, Data Encipherment, Key Agreement, Certificate Sign
            X509v3 Extended Key Usage: critical
                TLS Web Server Authentication, TLS Web Client Authentication
    Signature Algorithm: sha1WithRSAEncryption
         c2:80:62:29:92:a2:85:1e:78:b7:17:ba:f9:d3:a1:19:99:65:
         b5:6f:64:17:84:40:7f:92:ed:2e:3a:43:25:fa:38:30:cd:ff:
         eb:fd:d7:b1:77:b5:a3:dd:42:e6:9e:e7:81:3e:97:c4:1f:b9:
         a0:40:a5:61:a2:19:23:8c:81:44:44:8a:84:2b:9b:6a:98:80:
         7b:2f:3e:eb:1b:1c:8e:07:3e:ac:da:7c:89:b3:c1:be:d9:c4:
         20:f7:c6:c0:70:09:fa:0b:c3:fd:08:25:aa:53:48:85:0e:8b:
         e1:e8:76:be:10:f8:58:0c:c9:a6:25:99:06:87:78:02:08:e4:
         46:7e:98:e7:e2:74:bc:b3:8f:53:bf:a6:3a:0b:e6:de:e2:70:
         0b:41:08:77:32:b9:a3:90:4f:61:aa:6d:f6:be:46:80:b9:b3:
         91:12:ca:aa:98:00:cc:1c:43:df:e5:50:c4:8a:a5:9a:a2:46:
         21:f4:dc:20:9c:66:94:d8:00:52:c5:fc:c9:dd:37:9f:22:c0:
         05:13:a8:9c:11:e0:05:91:1c:3b:cb:25:99:57:47:58:41:d3:
         2b:82:c2:ab:df:5b:0d:ef:b1:26:c3:8e:47:92:1a:d8:e7:f6:
         2b:93:6d:3d:35:b0:1a:bf:88:d0:81:db:05:d9:68:70:d6:22:
         0b:ec:f2:b1
-----BEGIN CERTIFICATE-----
MIID1zCCAr+gAwIBAgICEAowDQYJKoZIhvcNAQEFBQAwWjELMAkGA1UEBhMCRlIx
DDAKBgNVBAgTA0lERjEOMAwGA1UEBxMFUGFyaXMxGTAXBgNVBAoTEEZha2UgQ0Eg
Zm9yIFRlc3QxEjAQBgNVBAMTCU5vZGVPUENVQTAeFw0xNTExMjkyMTI1NThaFw0x
NjExMjgyMTI1NThaMCgxEjAQBgNVBAoTCU5vZGVPUENVQTESMBAGA1UEAxMJTm9k
ZU9QQ1VBMIGfMA0GCSqGSIb3DQEBAQUAA4GNADCBiQKBgQDuevwbzD1ZEVbe+0sx
HiNO7YZjKyQXOPDVj82E45MH0l+DkTrTga8j6zSGDkUCFQggMhjkybMTLbReIXiJ
p9/BKl8VzKN4L5STBijSgoPU/YlvwZnZpu7cCtjEQheNTesXnyv0Ou55plXyAkKE
8zj/VeMCCnGQjpIjma/BjgTLqQIDAQABo4IBWzCCAVcwDAYDVR0TAQH/BAIwADAd
BgNVHQ4EFgQUY/tgh/JMvNKjorwTdPYOmena7/QwgYwGA1UdIwSBhDCBgYAUB/ht
XXxhtvqQs+tkxN41vx+M2cqhXqRcMFoxCzAJBgNVBAYTAkZSMQwwCgYDVQQIEwNJ
REYxDjAMBgNVBAcTBVBhcmlzMRkwFwYDVQQKExBGYWtlIENBIGZvciBUZXN0MRIw
EAYDVQQDEwlOb2RlT1BDVUGCCQDQP/T0nkim4DA5BgNVHREEMjAwhht1cm46S0FO
QVJZOk5vZGVPUENVQS1TZXJ2ZXKCCWxvY2FsaG9zdIIGS0FOQVJZMCwGCWCGSAGG
+EIBDQQfFh1PcGVuU1NMIEdlbmVyYXRlZCBDZXJ0aWZpY2F0ZTAOBgNVHQ8BAf8E
BAMCAvwwIAYDVR0lAQH/BBYwFAYIKwYBBQUHAwEGCCsGAQUFBwMCMA0GCSqGSIb3
DQEBBQUAA4IBAQDCgGIpkqKFHni3F7r506EZmWW1b2QXhEB/ku0uOkMl+jgwzf/r
/dexd7Wj3ULmnueBPpfEH7mgQKVhohkjjIFERIqEK5tqmIB7Lz7rGxyOBz6s2nyJ
s8G+2cQg98bAcAn6C8P9CCWqU0iFDovh6Ha+EPhYDMmmJZkGh3gCCORGfpjn4nS8
s49Tv6Y6C+be4nALQQh3MrmjkE9hqm32vkaAubOREsqqmADMHEPf5VDEiqWaokYh
9NwgnGaU2ABSxfzJ3TefIsAFE6icEeAFkRw7yyWZV0dYQdMrgsKr31sN77Emw45H
khrY5/Yrk209NbAav4jQgdsF2Whw1iIL7PKx
-----END CERTIFICATE-----
-----BEGIN CERTIFICATE-----
MIIEkjCCA3qgAwIBAgIJANA/9PSeSKbgMA0GCSqGSIb3DQEBCwUAMFoxCzAJBgNV
BAYTAkZSMQwwCgYDVQQIEwNJREYxDjAMBgNVBAcTBVBhcmlzMRkwFwYDVQQKExBG
YWtlIENBIGZvciBUZXN0MRIwEAYDVQQDEwlOb2RlT1BDVUEwHhcNMTUxMTMwMjEy
NjAwWhcNMjUxMTI3MjEyNjAwWjBaMQswCQYDVQQGEwJGUjEMMAoGA1UECBMDSURG
MQ4wDAYDVQQHEwVQYXJpczEZMBcGA1UEChMQRmFrZSBDQSBmb3IgVGVzdDESMBAG
A1UEAxMJTm9kZU9QQ1VBMIIBIjANBgkqhkiG9w0BAQEFAAOCAQ8AMIIBCgKCAQEA
7jRASNCtwcmbbe44k+RgIaGPpArrxzn/TvY06ppEPa8QDyRFBitUgnDvtQCFSVTW
8bGZYs6NrxzdqU4ZGwzBnPLbT0gys4tk4Ouk6IHIuU6l7INQy/4R3/HIGAexsKJ+
XrSQrhcnVyjzXaXtHeRyUyvUx1GZtua2WpceMGSTcj8g+7njgUfJNdnblMPTJsw8
LARQCwYnUyE+zhmxGSbVG0BaJHUm2NxIgHxbEd++9zmO7HZCxAXUNxZTwjJ3dYoU
/AQDrPQmy7J23UZ7FnM0R6IeraV4ZwHllFBWcx7lg8mWoJd2aF168AqomyivSfe2
3WlIDJNzl8c40OdOEXocywIDAQABo4IBWTCCAVUwHQYDVR0OBBYEFAf4bV18Ybb6
kLPrZMTeNb8fjNnKMIGMBgNVHSMEgYQwgYGAFAf4bV18Ybb6kLPrZMTeNb8fjNnK
oV6kXDBaMQswCQYDVQQGEwJGUjEMMAoGA1UECBMDSURGMQ4wDAYDVQQHEwVQYXJp
czEZMBcGA1UEChMQRmFrZSBDQSBmb3IgVGVzdDESMBAGA1UEAxMJTm9kZU9QQ1VB
ggkA0D/09J5IpuAwDAYDVR0TBAUwAwEB/zAOBgNVHQ8BAf8EBAMCAQYwVwYJYIZI
AYb4QgENBEoWSENBIENlcnRpZmljYXRlIGdlbmVyYXRlZCBieSBOb2RlLU9QQ1VB
IENlcnRpZmljYXRlIHV0aWxpdHkgdXNpbmcgb3BlbnNzbDAuBgNVHR8EJzAlMCOg
IaAfhh1odHRwOi8vbG9jYWxob3N0Ojg5MDAvY3JsLnBlbTANBgkqhkiG9w0BAQsF
AAOCAQEAw5cwIHpD7FfqHYoCxvnTdYNBGUgFcneD7/oCLYS3HERfQo/OB0ViFKcG
J1v3xqc1rFz07e7u7S9oYNAG6umIjEzmgqeGmoP1dFbntRi+8KPovqskWQW9msG5
yhPKV50tesdTFtdnrS1dWZhtu5RluTbfNMudwp70gs927PR+HgZ8X8T0WBXaqAjA
CJ0tjMzMm04SSZZFq5AWhw2weMs8Xp+rYLuMFnrXc/lDl1xXv22gBynhyvaxx320
2VAdXLQeaCwVA97o9g0kSqmRAwMq7xctH0nIl9iWMT/hHgm7wNc4NwrmyQyA7pZU
1Rl2seMzXkyqWDertD6/jALT0j77Uw==
-----END CERTIFICATE-----
