Certificate:
    Data:
        Version: 3 (0x2)
        Serial Number: 4096 (0x1000)
    Signature Algorithm: sha1WithRSAEncryption
        Issuer: C=FR, ST=IDF, L=Paris, O=Fake CA for Test, CN=NodeOPCUA
        Validity
            Not Before: Nov 29 21:25:58 2015 GMT
            Not After : Nov 28 21:25:58 2016 GMT
        Subject: O=NodeOPCUA, CN=NodeOPCUA
        Subject Public Key Info:
            Public Key Algorithm: rsaEncryption
                Public-Key: (1024 bit)
                Modulus:
                    00:b0:fb:4b:40:24:aa:c7:f9:fb:7d:58:84:7c:55:
                    0a:aa:ad:f5:3a:e2:b8:d3:bb:fc:3f:ad:58:90:52:
                    11:4a:1f:90:ef:b3:d7:38:11:cc:5d:f4:40:46:a5:
                    08:c1:04:a6:0a:1a:ee:b9:b8:d7:ac:d7:e1:6b:eb:
                    b4:1c:00:1a:b7:e4:61:ba:e1:11:52:08:3f:b9:7b:
                    f8:35:23:af:01:75:83:db:e5:0a:9b:8c:2b:e5:7e:
                    1a:30:8b:cc:3e:fe:ae:9f:b8:37:ba:a1:cd:e5:37:
                    65:21:c3:3c:9a:71:4f:2b:89:af:a7:ba:c0:4f:b8:
                    3e:d7:dd:e0:ad:06:df:8a:71
                Exponent: 65537 (0x10001)
        X509v3 extensions:
            X509v3 Basic Constraints: critical
                CA:FALSE
            X509v3 Subject Key Identifier: 
                DA:00:88:CF:48:2D:2B:55:74:69:8A:AC:A9:4B:7C:F0:74:63:C7:38
            X509v3 Authority Key Identifier: 
                keyid:07:F8:6D:5D:7C:61:B6:FA:90:B3:EB:64:C4:DE:35:BF:1F:8C:D9:CA
                DirName:/C=FR/ST=IDF/L=Paris/O=Fake CA for Test/CN=NodeOPCUA
                serial:D0:3F:F4:F4:9E:48:A6:E0

            X509v3 Subject Alternative Name: 
                URI:urn:KANARY:NodeOPCUA-Client, DNS:localhost, DNS:KANARY
            Netscape Comment: 
                OpenSSL Generated Certificate
            X509v3 Key Usage: critical
                Digital Signature, Non Repudiation, Key Encipherment, Data Encipherment, Key Agreement, Certificate Sign
            X509v3 Extended Key Usage: critical
                TLS Web Server Authentication, TLS Web Client Authentication
    Signature Algorithm: sha1WithRSAEncryption
         b2:c7:31:43:f0:79:f4:a6:74:b5:05:3d:b7:2f:c4:dd:5c:1d:
         ec:39:c8:3f:03:4a:d7:26:20:5b:cd:c6:71:b2:c8:e9:4b:2e:
         20:4c:bb:e9:86:a7:13:04:4c:1f:f6:55:87:e4:58:94:df:d0:
         8a:20:84:f6:4e:4d:f9:01:25:0d:ab:b7:bf:98:59:6a:64:39:
         c5:63:56:b4:1f:e4:72:5f:3a:c5:e4:f4:6e:6a:99:eb:38:8a:
         f6:01:cb:f8:6b:ff:8c:68:90:12:48:a9:01:d0:c6:40:9b:98:
         7a:d6:bf:cb:1f:7f:ee:cc:7e:4c:24:ae:3e:47:7a:69:b4:e5:
         fb:d8:df:cc:9d:ee:e2:bf:43:c8:9d:f4:7e:8c:3f:fc:d8:08:
         06:35:f3:18:cb:1e:64:1c:d8:ef:d7:1c:33:62:de:ba:a9:45:
         47:8b:77:78:66:db:cc:9f:15:e7:32:a0:91:cf:41:63:6f:9f:
         2a:c5:cb:7b:a6:ca:da:d6:b5:1a:a3:cd:07:57:e8:47:72:77:
         39:34:34:76:c0:33:d9:b1:8c:51:b7:c5:62:cd:01:c3:74:84:
         b1:16:1d:c5:ca:26:ff:75:81:40:46:b3:f2:b2:e5:16:6f:25:
         c3:87:e7:62:92:5b:0b:c0:79:4b:4b:94:74:52:75:51:a3:94:
         e4:32:ec:88
-----BEGIN CERTIFICATE-----
MIID1zCCAr+gAwIBAgICEAAwDQYJKoZIhvcNAQEFBQAwWjELMAkGA1UEBhMCRlIx
DDAKBgNVBAgTA0lERjEOMAwGA1UEBxMFUGFyaXMxGTAXBgNVBAoTEEZha2UgQ0Eg
Zm9yIFRlc3QxEjAQBgNVBAMTCU5vZGVPUENVQTAeFw0xNTExMjkyMTI1NThaFw0x
NjExMjgyMTI1NThaMCgxEjAQBgNVBAoTCU5vZGVPUENVQTESMBAGA1UEAxMJTm9k
ZU9QQ1VBMIGfMA0GCSqGSIb3DQEBAQUAA4GNADCBiQKBgQCw+0tAJKrH+ft9WIR8
VQqqrfU64rjTu/w/rViQUhFKH5Dvs9c4Ecxd9EBGpQjBBKYKGu65uNes1+Fr67Qc
ABq35GG64RFSCD+5e/g1I68BdYPb5QqbjCvlfhowi8w+/q6fuDe6oc3lN2Uhwzya
cU8ria+nusBPuD7X3eCtBt+KcQIDAQABo4IBWzCCAVcwDAYDVR0TAQH/BAIwADAd
BgNVHQ4EFgQU2gCIz0gtK1V0aYqsqUt88HRjxzgwgYwGA1UdIwSBhDCBgYAUB/ht
XXxhtvqQs+tkxN41vx+M2cqhXqRcMFoxCzAJBgNVBAYTAkZSMQwwCgYDVQQIEwNJ
REYxDjAMBgNVBAcTBVBhcmlzMRkwFwYDVQQKExBGYWtlIENBIGZvciBUZXN0MRIw
EAYDVQQDEwlOb2RlT1BDVUGCCQDQP/T0nkim4DA5BgNVHREEMjAwhht1cm46S0FO
QVJZOk5vZGVPUENVQS1DbGllbnSCCWxvY2FsaG9zdIIGS0FOQVJZMCwGCWCGSAGG
+EIBDQQfFh1PcGVuU1NMIEdlbmVyYXRlZCBDZXJ0aWZpY2F0ZTAOBgNVHQ8BAf8E
BAMCAvwwIAYDVR0lAQH/BBYwFAYIKwYBBQUHAwEGCCsGAQUFBwMCMA0GCSqGSIb3
DQEBBQUAA4IBAQCyxzFD8Hn0pnS1BT23L8TdXB3sOcg/A0rXJiBbzcZxssjpSy4g
TLvphqcTBEwf9lWH5FiU39CKIIT2Tk35ASUNq7e/mFlqZDnFY1a0H+RyXzrF5PRu
apnrOIr2Acv4a/+MaJASSKkB0MZAm5h61r/LH3/uzH5MJK4+R3pptOX72N/Mne7i
v0PInfR+jD/82AgGNfMYyx5kHNjv1xwzYt66qUVHi3d4ZtvMnxXnMqCRz0Fjb58q
xct7psra1rUao80HV+hHcnc5NDR2wDPZsYxRt8VizQHDdISxFh3Fyib/dYFARrPy
suUWbyXDh+diklsLwHlLS5R0UnVRo5TkMuyI
-----END CERTIFICATE-----
-----BEGIN CERTIFICATE-----
MIIEkjCCA3qgAwIBAgIJANA/9PSeSKbgMA0GCSqGSIb3DQEBCwUAMFoxCzAJBgNV
BAYTAkZSMQwwCgYDVQQIEwNJREYxDjAMBgNVBAcTBVBhcmlzMRkwFwYDVQQKExBG
YWtlIENBIGZvciBUZXN0MRIwEAYDVQQDEwlOb2RlT1BDVUEwHhcNMTUxMTMwMjEy
NjAwWhcNMjUxMTI3MjEyNjAwWjBaMQswCQYDVQQGEwJGUjEMMAoGA1UECBMDSURG
MQ4wDAYDVQQHEwVQYXJpczEZMBcGA1UEChMQRmFrZSBDQSBmb3IgVGVzdDESMBAG
A1UEAxMJTm9kZU9QQ1VBMIIBIjANBgkqhkiG9w0BAQEFAAOCAQ8AMIIBCgKCAQEA
7jRASNCtwcmbbe44k+RgIaGPpArrxzn/TvY06ppEPa8QDyRFBitUgnDvtQCFSVTW
8bGZYs6NrxzdqU4ZGwzBnPLbT0gys4tk4Ouk6IHIuU6l7INQy/4R3/HIGAexsKJ+
XrSQrhcnVyjzXaXtHeRyUyvUx1GZtua2WpceMGSTcj8g+7njgUfJNdnblMPTJsw8
LARQCwYnUyE+zhmxGSbVG0BaJHUm2NxIgHxbEd++9zmO7HZCxAXUNxZTwjJ3dYoU
/AQDrPQmy7J23UZ7FnM0R6IeraV4ZwHllFBWcx7lg8mWoJd2aF168AqomyivSfe2
3WlIDJNzl8c40OdOEXocywIDAQABo4IBWTCCAVUwHQYDVR0OBBYEFAf4bV18Ybb6
kLPrZMTeNb8fjNnKMIGMBgNVHSMEgYQwgYGAFAf4bV18Ybb6kLPrZMTeNb8fjNnK
oV6kXDBaMQswCQYDVQQGEwJGUjEMMAoGA1UECBMDSURGMQ4wDAYDVQQHEwVQYXJp
czEZMBcGA1UEChMQRmFrZSBDQSBmb3IgVGVzdDESMBAGA1UEAxMJTm9kZU9QQ1VB
ggkA0D/09J5IpuAwDAYDVR0TBAUwAwEB/zAOBgNVHQ8BAf8EBAMCAQYwVwYJYIZI
AYb4QgENBEoWSENBIENlcnRpZmljYXRlIGdlbmVyYXRlZCBieSBOb2RlLU9QQ1VB
IENlcnRpZmljYXRlIHV0aWxpdHkgdXNpbmcgb3BlbnNzbDAuBgNVHR8EJzAlMCOg
IaAfhh1odHRwOi8vbG9jYWxob3N0Ojg5MDAvY3JsLnBlbTANBgkqhkiG9w0BAQsF
AAOCAQEAw5cwIHpD7FfqHYoCxvnTdYNBGUgFcneD7/oCLYS3HERfQo/OB0ViFKcG
J1v3xqc1rFz07e7u7S9oYNAG6umIjEzmgqeGmoP1dFbntRi+8KPovqskWQW9msG5
yhPKV50tesdTFtdnrS1dWZhtu5RluTbfNMudwp70gs927PR+HgZ8X8T0WBXaqAjA
CJ0tjMzMm04SSZZFq5AWhw2weMs8Xp+rYLuMFnrXc/lDl1xXv22gBynhyvaxx320
2VAdXLQeaCwVA97o9g0kSqmRAwMq7xctH0nIl9iWMT/hHgm7wNc4NwrmyQyA7pZU
1Rl2seMzXkyqWDertD6/jALT0j77Uw==
-----END CERTIFICATE-----
