Certificate:
    Data:
        Version: 3 (0x2)
        Serial Number: 4110 (0x100e)
    Signature Algorithm: sha1WithRSAEncryption
        Issuer: C=FR, ST=IDF, L=Paris, O=Fake CA for Test, CN=NodeOPCUA
        Validity
            Not Before: Nov 30 21:25:58 2013 GMT
            Not After : Nov 30 21:25:58 2014 GMT
        Subject: O=NodeOPCUA, CN=NodeOPCUA
        Subject Public Key Info:
            Public Key Algorithm: rsaEncryption
                Public-Key: (1024 bit)
                Modulus:
                    00:ee:7a:fc:1b:cc:3d:59:11:56:de:fb:4b:31:1e:
                    23:4e:ed:86:63:2b:24:17:38:f0:d5:8f:cd:84:e3:
                    93:07:d2:5f:83:91:3a:d3:81:af:23:eb:34:86:0e:
                    45:02:15:08:20:32:18:e4:c9:b3:13:2d:b4:5e:21:
                    78:89:a7:df:c1:2a:5f:15:cc:a3:78:2f:94:93:06:
                    28:d2:82:83:d4:fd:89:6f:c1:99:d9:a6:ee:dc:0a:
                    d8:c4:42:17:8d:4d:eb:17:9f:2b:f4:3a:ee:79:a6:
                    55:f2:02:42:84:f3:38:ff:55:e3:02:0a:71:90:8e:
                    92:23:99:af:c1:8e:04:cb:a9
                Exponent: 65537 (0x10001)
        X509v3 extensions:
            X509v3 Basic Constraints: critical
                CA:FALSE
            X509v3 Subject Key Identifier: 
                63:FB:60:87:F2:4C:BC:D2:A3:A2:BC:13:74:F6:0E:99:E9:DA:EF:F4
            X509v3 Authority Key Identifier: 
                keyid:07:F8:6D:5D:7C:61:B6:FA:90:B3:EB:64:C4:DE:35:BF:1F:8C:D9:CA
                DirName:/C=FR/ST=IDF/L=Paris/O=Fake CA for Test/CN=NodeOPCUA
                serial:D0:3F:F4:F4:9E:48:A6:E0

            X509v3 Subject Alternative Name: 
                URI:urn:KANARY:NodeOPCUA-Server, DNS:localhost, DNS:KANARY
            Netscape Comment: 
                OpenSSL Generated Certificate
            X509v3 Key Usage: critical
                Digital Signature, Non Repudiation, Key Encipherment, Data Encipherment, Key Agreement, Certificate Sign
            X509v3 Extended Key Usage: critical
                TLS Web Server Authentication, TLS Web Client Authentication
    Signature Algorithm: sha1WithRSAEncryption
         90:cc:53:26:a0:19:c2:73:c6:14:e8:22:84:43:97:cb:7c:11:
         3a:67:a9:69:1d:c9:0f:34:58:dd:aa:d9:da:65:20:9f:bf:d9:
         5e:4c:57:4f:67:8e:6b:66:e8:b0:1a:56:01:9c:11:c6:cc:7a:
         bd:73:a0:65:22:9b:5c:47:f9:1c:0d:21:9b:8a:e8:c3:12:44:
         a4:cf:b9:47:9a:35:7f:01:82:e4:69:c1:3d:b0:a8:54:92:04:
         c6:a5:7f:d7:e3:94:12:15:d3:87:bd:16:2f:92:d6:f2:89:03:
         89:12:6c:91:b1:24:7b:06:a7:49:cb:7c:40:ef:70:72:69:0d:
         c4:42:cf:2b:5b:cc:bd:d7:64:5b:1f:c6:f7:01:98:6e:27:ac:
         e6:46:39:42:4b:8e:d6:ba:8d:13:e3:c8:9c:4d:f2:40:9e:fe:
         e6:96:e7:7b:d0:f0:f8:cb:8e:a6:72:26:6c:53:19:fe:52:6d:
         ee:7a:93:cc:9a:83:7e:9a:dd:cb:c3:6d:c3:fa:b2:51:c0:7b:
         19:bc:5d:c5:f9:e4:8f:57:19:e2:6c:cd:ae:c4:20:81:78:b0:
         47:a5:95:be:b1:61:2f:55:8f:1c:18:1b:86:81:e6:e3:17:ec:
         52:7d:4e:1b:20:48:94:13:4c:b2:73:b9:5a:dd:98:cb:8b:1b:
         66:4a:eb:55
-----BEGIN CERTIFICATE-----
MIID1zCCAr+gAwIBAgICEA4wDQYJKoZIhvcNAQEFBQAwWjELMAkGA1UEBhMCRlIx
DDAKBgNVBAgTA0lERjEOMAwGA1UEBxMFUGFyaXMxGTAXBgNVBAoTEEZha2UgQ0Eg
Zm9yIFRlc3QxEjAQBgNVBAMTCU5vZGVPUENVQTAeFw0xMzExMzAyMTI1NThaFw0x
NDExMzAyMTI1NThaMCgxEjAQBgNVBAoTCU5vZGVPUENVQTESMBAGA1UEAxMJTm9k
ZU9QQ1VBMIGfMA0GCSqGSIb3DQEBAQUAA4GNADCBiQKBgQDuevwbzD1ZEVbe+0sx
HiNO7YZjKyQXOPDVj82E45MH0l+DkTrTga8j6zSGDkUCFQggMhjkybMTLbReIXiJ
p9/BKl8VzKN4L5STBijSgoPU/YlvwZnZpu7cCtjEQheNTesXnyv0Ou55plXyAkKE
8zj/VeMCCnGQjpIjma/BjgTLqQIDAQABo4IBWzCCAVcwDAYDVR0TAQH/BAIwADAd
BgNVHQ4EFgQUY/tgh/JMvNKjorwTdPYOmena7/QwgYwGA1UdIwSBhDCBgYAUB/ht
XXxhtvqQs+tkxN41vx+M2cqhXqRcMFoxCzAJBgNVBAYTAkZSMQwwCgYDVQQIEwNJ
REYxDjAMBgNVBAcTBVBhcmlzMRkwFwYDVQQKExBGYWtlIENBIGZvciBUZXN0MRIw
EAYDVQQDEwlOb2RlT1BDVUGCCQDQP/T0nkim4DA5BgNVHREEMjAwhht1cm46S0FO
QVJZOk5vZGVPUENVQS1TZXJ2ZXKCCWxvY2FsaG9zdIIGS0FOQVJZMCwGCWCGSAGG
+EIBDQQfFh1PcGVuU1NMIEdlbmVyYXRlZCBDZXJ0aWZpY2F0ZTAOBgNVHQ8BAf8E
BAMCAvwwIAYDVR0lAQH/BBYwFAYIKwYBBQUHAwEGCCsGAQUFBwMCMA0GCSqGSIb3
DQEBBQUAA4IBAQCQzFMmoBnCc8YU6CKEQ5fLfBE6Z6lpHckPNFjdqtnaZSCfv9le
TFdPZ45rZuiwGlYBnBHGzHq9c6BlIptcR/kcDSGbiujDEkSkz7lHmjV/AYLkacE9
sKhUkgTGpX/X45QSFdOHvRYvktbyiQOJEmyRsSR7BqdJy3xA73ByaQ3EQs8rW8y9
12RbH8b3AZhuJ6zmRjlCS47Wuo0T48icTfJAnv7mlud70PD4y46mciZsUxn+Um3u
epPMmoN+mt3Lw23D+rJRwHsZvF3F+eSPVxnibM2uxCCBeLBHpZW+sWEvVY8cGBuG
gebjF+xSfU4bIEiUE0yyc7la3ZjLixtmSutV
-----END CERTIFICATE-----
-----BEGIN CERTIFICATE-----
MIIEkjCCA3qgAwIBAgIJANA/9PSeSKbgMA0GCSqGSIb3DQEBCwUAMFoxCzAJBgNV
BAYTAkZSMQwwCgYDVQQIEwNJREYxDjAMBgNVBAcTBVBhcmlzMRkwFwYDVQQKExBG
YWtlIENBIGZvciBUZXN0MRIwEAYDVQQDEwlOb2RlT1BDVUEwHhcNMTUxMTMwMjEy
NjAwWhcNMjUxMTI3MjEyNjAwWjBaMQswCQYDVQQGEwJGUjEMMAoGA1UECBMDSURG
MQ4wDAYDVQQHEwVQYXJpczEZMBcGA1UEChMQRmFrZSBDQSBmb3IgVGVzdDESMBAG
A1UEAxMJTm9kZU9QQ1VBMIIBIjANBgkqhkiG9w0BAQEFAAOCAQ8AMIIBCgKCAQEA
7jRASNCtwcmbbe44k+RgIaGPpArrxzn/TvY06ppEPa8QDyRFBitUgnDvtQCFSVTW
8bGZYs6NrxzdqU4ZGwzBnPLbT0gys4tk4Ouk6IHIuU6l7INQy/4R3/HIGAexsKJ+
XrSQrhcnVyjzXaXtHeRyUyvUx1GZtua2WpceMGSTcj8g+7njgUfJNdnblMPTJsw8
LARQCwYnUyE+zhmxGSbVG0BaJHUm2NxIgHxbEd++9zmO7HZCxAXUNxZTwjJ3dYoU
/AQDrPQmy7J23UZ7FnM0R6IeraV4ZwHllFBWcx7lg8mWoJd2aF168AqomyivSfe2
3WlIDJNzl8c40OdOEXocywIDAQABo4IBWTCCAVUwHQYDVR0OBBYEFAf4bV18Ybb6
kLPrZMTeNb8fjNnKMIGMBgNVHSMEgYQwgYGAFAf4bV18Ybb6kLPrZMTeNb8fjNnK
oV6kXDBaMQswCQYDVQQGEwJGUjEMMAoGA1UECBMDSURGMQ4wDAYDVQQHEwVQYXJp
czEZMBcGA1UEChMQRmFrZSBDQSBmb3IgVGVzdDESMBAGA1UEAxMJTm9kZU9QQ1VB
ggkA0D/09J5IpuAwDAYDVR0TBAUwAwEB/zAOBgNVHQ8BAf8EBAMCAQYwVwYJYIZI
AYb4QgENBEoWSENBIENlcnRpZmljYXRlIGdlbmVyYXRlZCBieSBOb2RlLU9QQ1VB
IENlcnRpZmljYXRlIHV0aWxpdHkgdXNpbmcgb3BlbnNzbDAuBgNVHR8EJzAlMCOg
IaAfhh1odHRwOi8vbG9jYWxob3N0Ojg5MDAvY3JsLnBlbTANBgkqhkiG9w0BAQsF
AAOCAQEAw5cwIHpD7FfqHYoCxvnTdYNBGUgFcneD7/oCLYS3HERfQo/OB0ViFKcG
J1v3xqc1rFz07e7u7S9oYNAG6umIjEzmgqeGmoP1dFbntRi+8KPovqskWQW9msG5
yhPKV50tesdTFtdnrS1dWZhtu5RluTbfNMudwp70gs927PR+HgZ8X8T0WBXaqAjA
CJ0tjMzMm04SSZZFq5AWhw2weMs8Xp+rYLuMFnrXc/lDl1xXv22gBynhyvaxx320
2VAdXLQeaCwVA97o9g0kSqmRAwMq7xctH0nIl9iWMT/hHgm7wNc4NwrmyQyA7pZU
1Rl2seMzXkyqWDertD6/jALT0j77Uw==
-----END CERTIFICATE-----
