Certificate:
    Data:
        Version: 3 (0x2)
        Serial Number: 4100 (0x1004)
    Signature Algorithm: sha1WithRSAEncryption
        Issuer: C=FR, ST=IDF, L=Paris, O=Fake CA for Test, CN=NodeOPCUA
        Validity
            Not Before: Nov 30 21:25:58 2013 GMT
            Not After : Nov 30 21:25:58 2014 GMT
        Subject: O=NodeOPCUA, CN=NodeOPCUA
        Subject Public Key Info:
            Public Key Algorithm: rsaEncryption
                Public-Key: (1024 bit)
                Modulus:
                    00:b0:fb:4b:40:24:aa:c7:f9:fb:7d:58:84:7c:55:
                    0a:aa:ad:f5:3a:e2:b8:d3:bb:fc:3f:ad:58:90:52:
                    11:4a:1f:90:ef:b3:d7:38:11:cc:5d:f4:40:46:a5:
                    08:c1:04:a6:0a:1a:ee:b9:b8:d7:ac:d7:e1:6b:eb:
                    b4:1c:00:1a:b7:e4:61:ba:e1:11:52:08:3f:b9:7b:
                    f8:35:23:af:01:75:83:db:e5:0a:9b:8c:2b:e5:7e:
                    1a:30:8b:cc:3e:fe:ae:9f:b8:37:ba:a1:cd:e5:37:
                    65:21:c3:3c:9a:71:4f:2b:89:af:a7:ba:c0:4f:b8:
                    3e:d7:dd:e0:ad:06:df:8a:71
                Exponent: 65537 (0x10001)
        X509v3 extensions:
            X509v3 Basic Constraints: critical
                CA:FALSE
            X509v3 Subject Key Identifier: 
                DA:00:88:CF:48:2D:2B:55:74:69:8A:AC:A9:4B:7C:F0:74:63:C7:38
            X509v3 Authority Key Identifier: 
                keyid:07:F8:6D:5D:7C:61:B6:FA:90:B3:EB:64:C4:DE:35:BF:1F:8C:D9:CA
                DirName:/C=FR/ST=IDF/L=Paris/O=Fake CA for Test/CN=NodeOPCUA
                serial:D0:3F:F4:F4:9E:48:A6:E0

            X509v3 Subject Alternative Name: 
                URI:urn:KANARY:NodeOPCUA-Client, DNS:localhost, DNS:KANARY
            Netscape Comment: 
                OpenSSL Generated Certificate
            X509v3 Key Usage: critical
                Digital Signature, Non Repudiation, Key Encipherment, Data Encipherment, Key Agreement, Certificate Sign
            X509v3 Extended Key Usage: critical
                TLS Web Server Authentication, TLS Web Client Authentication
    Signature Algorithm: sha1WithRSAEncryption
         47:de:1b:25:07:52:d2:6a:1f:5a:ec:07:bf:1b:23:68:61:d5:
         30:7d:42:52:a7:55:cf:92:b6:10:76:69:96:f7:93:82:6e:04:
         fc:6e:38:14:ef:16:27:94:2b:5b:31:bf:ea:27:64:a6:8f:27:
         87:54:fc:9a:70:01:b8:67:3c:6f:c9:47:00:61:c7:ec:5b:de:
         c5:d0:9d:fe:db:78:9d:f8:b5:d5:0c:09:d3:b9:9b:a7:e0:97:
         a0:b0:83:47:75:84:ed:22:56:1d:57:bf:39:94:27:7c:0f:5c:
         c2:3e:61:20:83:01:45:73:59:41:95:07:30:40:1c:74:fb:88:
         c0:43:fd:5f:f9:79:56:b3:37:6e:bc:78:b8:b0:95:f2:fb:90:
         16:6b:b8:01:fa:5a:43:47:60:93:d8:4a:2b:1b:db:b9:6d:64:
         08:b4:58:b8:67:3b:4d:10:b0:82:94:de:16:e6:f7:7e:90:00:
         31:2b:00:7d:e1:b9:eb:91:f5:84:1d:6c:51:61:7e:f8:32:17:
         c7:9d:81:05:e0:e5:9c:68:b0:d9:4b:35:f0:eb:57:5e:0f:40:
         6b:11:09:34:45:be:5e:03:23:d4:7b:42:9e:30:1a:61:d3:70:
         c9:49:6f:35:63:80:26:13:56:f6:ba:c0:4f:ef:b0:b3:9f:2a:
         de:bd:46:ee
-----BEGIN CERTIFICATE-----
MIID1zCCAr+gAwIBAgICEAQwDQYJKoZIhvcNAQEFBQAwWjELMAkGA1UEBhMCRlIx
DDAKBgNVBAgTA0lERjEOMAwGA1UEBxMFUGFyaXMxGTAXBgNVBAoTEEZha2UgQ0Eg
Zm9yIFRlc3QxEjAQBgNVBAMTCU5vZGVPUENVQTAeFw0xMzExMzAyMTI1NThaFw0x
NDExMzAyMTI1NThaMCgxEjAQBgNVBAoTCU5vZGVPUENVQTESMBAGA1UEAxMJTm9k
ZU9QQ1VBMIGfMA0GCSqGSIb3DQEBAQUAA4GNADCBiQKBgQCw+0tAJKrH+ft9WIR8
VQqqrfU64rjTu/w/rViQUhFKH5Dvs9c4Ecxd9EBGpQjBBKYKGu65uNes1+Fr67Qc
ABq35GG64RFSCD+5e/g1I68BdYPb5QqbjCvlfhowi8w+/q6fuDe6oc3lN2Uhwzya
cU8ria+nusBPuD7X3eCtBt+KcQIDAQABo4IBWzCCAVcwDAYDVR0TAQH/BAIwADAd
BgNVHQ4EFgQU2gCIz0gtK1V0aYqsqUt88HRjxzgwgYwGA1UdIwSBhDCBgYAUB/ht
XXxhtvqQs+tkxN41vx+M2cqhXqRcMFoxCzAJBgNVBAYTAkZSMQwwCgYDVQQIEwNJ
REYxDjAMBgNVBAcTBVBhcmlzMRkwFwYDVQQKExBGYWtlIENBIGZvciBUZXN0MRIw
EAYDVQQDEwlOb2RlT1BDVUGCCQDQP/T0nkim4DA5BgNVHREEMjAwhht1cm46S0FO
QVJZOk5vZGVPUENVQS1DbGllbnSCCWxvY2FsaG9zdIIGS0FOQVJZMCwGCWCGSAGG
+EIBDQQfFh1PcGVuU1NMIEdlbmVyYXRlZCBDZXJ0aWZpY2F0ZTAOBgNVHQ8BAf8E
BAMCAvwwIAYDVR0lAQH/BBYwFAYIKwYBBQUHAwEGCCsGAQUFBwMCMA0GCSqGSIb3
DQEBBQUAA4IBAQBH3hslB1LSah9a7Ae/GyNoYdUwfUJSp1XPkrYQdmmW95OCbgT8
bjgU7xYnlCtbMb/qJ2SmjyeHVPyacAG4ZzxvyUcAYcfsW97F0J3+23id+LXVDAnT
uZun4JegsINHdYTtIlYdV785lCd8D1zCPmEggwFFc1lBlQcwQBx0+4jAQ/1f+XlW
szduvHi4sJXy+5AWa7gB+lpDR2CT2EorG9u5bWQItFi4ZztNELCClN4W5vd+kAAx
KwB94bnrkfWEHWxRYX74MhfHnYEF4OWcaLDZSzXw61deD0BrEQk0Rb5eAyPUe0Ke
MBph03DJSW81Y4AmE1b2usBP77CznyrevUbu
-----END CERTIFICATE-----
-----BEGIN CERTIFICATE-----
MIIEkjCCA3qgAwIBAgIJANA/9PSeSKbgMA0GCSqGSIb3DQEBCwUAMFoxCzAJBgNV
BAYTAkZSMQwwCgYDVQQIEwNJREYxDjAMBgNVBAcTBVBhcmlzMRkwFwYDVQQKExBG
YWtlIENBIGZvciBUZXN0MRIwEAYDVQQDEwlOb2RlT1BDVUEwHhcNMTUxMTMwMjEy
NjAwWhcNMjUxMTI3MjEyNjAwWjBaMQswCQYDVQQGEwJGUjEMMAoGA1UECBMDSURG
MQ4wDAYDVQQHEwVQYXJpczEZMBcGA1UEChMQRmFrZSBDQSBmb3IgVGVzdDESMBAG
A1UEAxMJTm9kZU9QQ1VBMIIBIjANBgkqhkiG9w0BAQEFAAOCAQ8AMIIBCgKCAQEA
7jRASNCtwcmbbe44k+RgIaGPpArrxzn/TvY06ppEPa8QDyRFBitUgnDvtQCFSVTW
8bGZYs6NrxzdqU4ZGwzBnPLbT0gys4tk4Ouk6IHIuU6l7INQy/4R3/HIGAexsKJ+
XrSQrhcnVyjzXaXtHeRyUyvUx1GZtua2WpceMGSTcj8g+7njgUfJNdnblMPTJsw8
LARQCwYnUyE+zhmxGSbVG0BaJHUm2NxIgHxbEd++9zmO7HZCxAXUNxZTwjJ3dYoU
/AQDrPQmy7J23UZ7FnM0R6IeraV4ZwHllFBWcx7lg8mWoJd2aF168AqomyivSfe2
3WlIDJNzl8c40OdOEXocywIDAQABo4IBWTCCAVUwHQYDVR0OBBYEFAf4bV18Ybb6
kLPrZMTeNb8fjNnKMIGMBgNVHSMEgYQwgYGAFAf4bV18Ybb6kLPrZMTeNb8fjNnK
oV6kXDBaMQswCQYDVQQGEwJGUjEMMAoGA1UECBMDSURGMQ4wDAYDVQQHEwVQYXJp
czEZMBcGA1UEChMQRmFrZSBDQSBmb3IgVGVzdDESMBAGA1UEAxMJTm9kZU9QQ1VB
ggkA0D/09J5IpuAwDAYDVR0TBAUwAwEB/zAOBgNVHQ8BAf8EBAMCAQYwVwYJYIZI
AYb4QgENBEoWSENBIENlcnRpZmljYXRlIGdlbmVyYXRlZCBieSBOb2RlLU9QQ1VB
IENlcnRpZmljYXRlIHV0aWxpdHkgdXNpbmcgb3BlbnNzbDAuBgNVHR8EJzAlMCOg
IaAfhh1odHRwOi8vbG9jYWxob3N0Ojg5MDAvY3JsLnBlbTANBgkqhkiG9w0BAQsF
AAOCAQEAw5cwIHpD7FfqHYoCxvnTdYNBGUgFcneD7/oCLYS3HERfQo/OB0ViFKcG
J1v3xqc1rFz07e7u7S9oYNAG6umIjEzmgqeGmoP1dFbntRi+8KPovqskWQW9msG5
yhPKV50tesdTFtdnrS1dWZhtu5RluTbfNMudwp70gs927PR+HgZ8X8T0WBXaqAjA
CJ0tjMzMm04SSZZFq5AWhw2weMs8Xp+rYLuMFnrXc/lDl1xXv22gBynhyvaxx320
2VAdXLQeaCwVA97o9g0kSqmRAwMq7xctH0nIl9iWMT/hHgm7wNc4NwrmyQyA7pZU
1Rl2seMzXkyqWDertD6/jALT0j77Uw==
-----END CERTIFICATE-----
